target datalayout = "e-m:e-p270:32:32-p271:32:32-p272:64:64-i64:64-i128:128-f80:128-n8:16:32:64-S128"
target triple = "x86_64-pc-linux-gnu"

%struct.DH_PKEY_CTX = type { i32, i32, i32, i32, i32, ptr, i32, [2 x i32], i8, ptr, ptr, ptr, i64, i64 }
%struct.evp_pkey_ctx_st = type { i32, ptr, ptr, ptr, ptr, %union.anon, %struct.anon.4, ptr, ptr, ptr, i32, i32, ptr, ptr, ptr, ptr, ptr, i8, ptr }
%union.anon = type { %struct.anon.0 }
%struct.anon.0 = type { ptr, ptr }
%struct.anon.4 = type { ptr, ptr, i64, i8 }

@.str = private unnamed_addr constant [32 x i8] c"../openssl/crypto/dh/dh_pmeth.c\00", align 1

; Function Attrs: nounwind uwtable
define internal void @pkey_dh_cleanup(ptr noundef %0) #0 {
  %2 = alloca ptr, align 8
  %3 = alloca ptr, align 8
  store ptr %0, ptr %2, align 8, !tbaa !3
  call void @llvm.lifetime.start.p0(i64 8, ptr %3) #6
  %4 = load ptr, ptr %2, align 8, !tbaa !3
  %5 = getelementptr inbounds nuw %struct.evp_pkey_ctx_st, ptr %4, i32 0, i32 16
  %6 = load ptr, ptr %5, align 8, !tbaa !19
  store ptr %6, ptr %3, align 8, !tbaa !8
  %7 = load ptr, ptr %3, align 8, !tbaa !8
  %8 = icmp ne ptr %7, null
  br i1 %8, label %9, label %17

9:                                                ; preds = %1
  %10 = load ptr, ptr %3, align 8, !tbaa !8
  %11 = getelementptr inbounds nuw %struct.DH_PKEY_CTX, ptr %10, i32 0, i32 11
  %12 = load ptr, ptr %11, align 8, !tbaa !37
  call void @CRYPTO_free(ptr noundef %12, ptr noundef @.str, i32 noundef 77)
  %13 = load ptr, ptr %3, align 8, !tbaa !8
  %14 = getelementptr inbounds nuw %struct.DH_PKEY_CTX, ptr %13, i32 0, i32 9
  %15 = load ptr, ptr %14, align 8, !tbaa !35
  call void @ASN1_OBJECT_free(ptr noundef %15)
  %16 = load ptr, ptr %3, align 8, !tbaa !8
  call void @CRYPTO_free(ptr noundef %16, ptr noundef @.str, i32 noundef 79)
  br label %17

17:                                               ; preds = %9, %1
  call void @llvm.lifetime.end.p0(i64 8, ptr %3) #6
  ret void
}